; Function Attrs: mustprogress nounwind uwtable
define dso_local void @_ZN4llvm20CallGraphWrapperPass13releaseMemoryEv(ptr noundef nonnull align 8 captures(none) dereferenceable(40) %0) unnamed_addr #0 align 2 {
  %2 = getelementptr inbounds nuw i8, ptr %0, i64 32
  %3 = load ptr, ptr %2, align 8
  store ptr null, ptr %2, align 8
  %.not.i.i = icmp eq ptr %3, null
  br i1 %.not.i.i, label %_ZNSt10unique_ptrIN4llvm9CallGraphESt14default_deleteIS1_EE5resetEPS1_.exit, label %_ZNKSt14default_deleteIN4llvm9CallGraphEEclEPS1_.exit.i.i

_ZNKSt14default_deleteIN4llvm9CallGraphEEclEPS1_.exit.i.i: ; preds = %1
  tail call void @_ZN4llvm9CallGraphD1Ev(ptr noundef nonnull align 8 dereferenceable(72) %3) #19
  tail call void @_ZdlPvm(ptr noundef nonnull %3, i64 noundef 72) #21
  br label %_ZNSt10unique_ptrIN4llvm9CallGraphESt14default_deleteIS1_EE5resetEPS1_.exit

_ZNSt10unique_ptrIN4llvm9CallGraphESt14default_deleteIS1_EE5resetEPS1_.exit: ; preds = %1, %_ZNKSt14default_deleteIN4llvm9CallGraphEEclEPS1_.exit.i.i
  ret void
}